; ModuleID = '7/631.c'
source_filename = "7/631.c"
target datalayout = "e-m:e-p270:32:32-p271:32:32-p272:64:64-i64:64-f80:128-n8:16:32:64-S128"
target triple = "x86_64-pc-linux-gnu"

@.str = private unnamed_addr constant [3 x i8] c"%c\00", align 1

; Function Attrs: noinline nounwind uwtable
define dso_local i32 @main() #0 {
  %1 = alloca i32, align 4
  %2 = alloca [257 x i8], align 16
  %3 = alloca [257 x i8], align 16
  %4 = alloca [257 x i8], align 16
  %5 = alloca i32, align 4
  %6 = alloca i32, align 4
  %7 = alloca i32, align 4
  %8 = alloca i32, align 4
  %9 = alloca i32, align 4
  %10 = alloca i32, align 4
  %11 = alloca i32, align 4
  %12 = alloca i32, align 4
  %13 = alloca i32, align 4
  %14 = alloca i32, align 4
  %15 = alloca i32, align 4
  %16 = alloca i32, align 4
  %17 = alloca [256 x i32], align 16
  store i32 0, i32* %1, align 4
  store i32 0, i32* %5, align 4
  store i32 0, i32* %11, align 4
  %18 = getelementptr inbounds [257 x i8], [257 x i8]* %2, i64 0, i64 0
  %19 = call i32 (i8*, ...) bitcast (i32 (...)* @gets to i32 (i8*, ...)*)(i8* %18)
  %20 = getelementptr inbounds [257 x i8], [257 x i8]* %3, i64 0, i64 0
  %21 = call i32 (i8*, ...) bitcast (i32 (...)* @gets to i32 (i8*, ...)*)(i8* %20)
  %22 = getelementptr inbounds [257 x i8], [257 x i8]* %4, i64 0, i64 0
  %23 = call i32 (i8*, ...) bitcast (i32 (...)* @gets to i32 (i8*, ...)*)(i8* %22)
  %24 = getelementptr inbounds [257 x i8], [257 x i8]* %2, i64 0, i64 0
  %25 = call i64 @strlen(i8* %24) #3
  %26 = trunc i64 %25 to i32
  store i32 %26, i32* %6, align 4
  %27 = getelementptr inbounds [257 x i8], [257 x i8]* %3, i64 0, i64 0
  %28 = call i64 @strlen(i8* %27) #3
  %29 = trunc i64 %28 to i32
  store i32 %29, i32* %7, align 4
  %30 = getelementptr inbounds [257 x i8], [257 x i8]* %4, i64 0, i64 0
  %31 = call i64 @strlen(i8* %30) #3
  %32 = trunc i64 %31 to i32
  store i32 %32, i32* %8, align 4
  store i32 0, i32* %9, align 4
  br label %33

33:                                               ; preds = %85, %0
  %34 = load i32, i32* %9, align 4
  %35 = load i32, i32* %6, align 4
  %36 = icmp slt i32 %34, %35
  br i1 %36, label %37, label %88

37:                                               ; preds = %33
  store i32 0, i32* %10, align 4
  br label %38

38:                                               ; preds = %81, %37
  %39 = load i32, i32* %10, align 4
  %40 = load i32, i32* %7, align 4
  %41 = sub nsw i32 %40, 1
  %42 = icmp slt i32 %39, %41
  br i1 %42, label %43, label %84

43:                                               ; preds = %38
  %44 = load i32, i32* %9, align 4
  %45 = load i32, i32* %10, align 4
  %46 = add nsw i32 %44, %45
  %47 = sext i32 %46 to i64
  %48 = getelementptr inbounds [257 x i8], [257 x i8]* %2, i64 0, i64 %47
  %49 = load i8, i8* %48, align 1
  %50 = sext i8 %49 to i32
  %51 = load i32, i32* %10, align 4
  %52 = sext i32 %51 to i64
  %53 = getelementptr inbounds [257 x i8], [257 x i8]* %3, i64 0, i64 %52
  %54 = load i8, i8* %53, align 1
  %55 = sext i8 %54 to i32
  %56 = icmp eq i32 %50, %55
  br i1 %56, label %57, label %80

57:                                               ; preds = %43
  %58 = load i32, i32* %9, align 4
  %59 = load i32, i32* %10, align 4
  %60 = add nsw i32 %58, %59
  %61 = add nsw i32 %60, 1
  %62 = sext i32 %61 to i64
  %63 = getelementptr inbounds [257 x i8], [257 x i8]* %2, i64 0, i64 %62
  %64 = load i8, i8* %63, align 1
  %65 = sext i8 %64 to i32
  %66 = load i32, i32* %10, align 4
  %67 = add nsw i32 %66, 1
  %68 = sext i32 %67 to i64
  %69 = getelementptr inbounds [257 x i8], [257 x i8]* %3, i64 0, i64 %68
  %70 = load i8, i8* %69, align 1
  %71 = sext i8 %70 to i32
  %72 = icmp eq i32 %65, %71
  br i1 %72, label %73, label %80

73:                                               ; preds = %57
  store i32 1, i32* %5, align 4
  %74 = load i32, i32* %9, align 4
  %75 = load i32, i32* %11, align 4
  %76 = sext i32 %75 to i64
  %77 = getelementptr inbounds [256 x i32], [256 x i32]* %17, i64 0, i64 %76
  store i32 %74, i32* %77, align 4
  %78 = load i32, i32* %11, align 4
  %79 = add nsw i32 %78, 1
  store i32 %79, i32* %11, align 4
  br label %80

80:                                               ; preds = %73, %57, %43
  br label %84

81:                                               ; No predecessors!
  %82 = load i32, i32* %10, align 4
  %83 = add nsw i32 %82, 1
  store i32 %83, i32* %10, align 4
  br label %38

84:                                               ; preds = %80, %38
  br label %85

85:                                               ; preds = %84
  %86 = load i32, i32* %9, align 4
  %87 = add nsw i32 %86, 1
  store i32 %87, i32* %9, align 4
  br label %33

88:                                               ; preds = %33
  %89 = getelementptr inbounds [256 x i32], [256 x i32]* %17, i64 0, i64 0
  %90 = load i32, i32* %89, align 16
  store i32 %90, i32* %12, align 4
  %91 = load i32, i32* %5, align 4
  %92 = icmp eq i32 %91, 1
  br i1 %92, label %93, label %147

93:                                               ; preds = %88
  store i32 0, i32* %13, align 4
  br label %94

94:                                               ; preds = %105, %93
  %95 = load i32, i32* %13, align 4
  %96 = load i32, i32* %12, align 4
  %97 = icmp slt i32 %95, %96
  br i1 %97, label %98, label %108

98:                                               ; preds = %94
  %99 = load i32, i32* %13, align 4
  %100 = sext i32 %99 to i64
  %101 = getelementptr inbounds [257 x i8], [257 x i8]* %2, i64 0, i64 %100
  %102 = load i8, i8* %101, align 1
  %103 = sext i8 %102 to i32
  %104 = call i32 (i8*, ...) @printf(i8* getelementptr inbounds ([3 x i8], [3 x i8]* @.str, i64 0, i64 0), i32 %103)
  br label %105

105:                                              ; preds = %98
  %106 = load i32, i32* %13, align 4
  %107 = add nsw i32 %106, 1
  store i32 %107, i32* %13, align 4
  br label %94

108:                                              ; preds = %94
  store i32 0, i32* %14, align 4
  br label %109

109:                                              ; preds = %120, %108
  %110 = load i32, i32* %14, align 4
  %111 = load i32, i32* %8, align 4
  %112 = icmp slt i32 %110, %111
  br i1 %112, label %113, label %123

113:                                              ; preds = %109
  %114 = load i32, i32* %14, align 4
  %115 = sext i32 %114 to i64
  %116 = getelementptr inbounds [257 x i8], [257 x i8]* %4, i64 0, i64 %115
  %117 = load i8, i8* %116, align 1
  %118 = sext i8 %117 to i32
  %119 = call i32 (i8*, ...) @printf(i8* getelementptr inbounds ([3 x i8], [3 x i8]* @.str, i64 0, i64 0), i32 %118)
  br label %120

120:                                              ; preds = %113
  %121 = load i32, i32* %14, align 4
  %122 = add nsw i32 %121, 1
  store i32 %122, i32* %14, align 4
  br label %109

123:                                              ; preds = %109
  store i32 0, i32* %15, align 4
  br label %124

124:                                              ; preds = %143, %123
  %125 = load i32, i32* %15, align 4
  %126 = load i32, i32* %6, align 4
  %127 = load i32, i32* %12, align 4
  %128 = sub nsw i32 %126, %127
  %129 = load i32, i32* %7, align 4
  %130 = sub nsw i32 %128, %129
  %131 = icmp slt i32 %125, %130
  br i1 %131, label %132, label %146

132:                                              ; preds = %124
  %133 = load i32, i32* %12, align 4
  %134 = load i32, i32* %7, align 4
  %135 = add nsw i32 %133, %134
  %136 = load i32, i32* %15, align 4
  %137 = add nsw i32 %135, %136
  %138 = sext i32 %137 to i64
  %139 = getelementptr inbounds [257 x i8], [257 x i8]* %2, i64 0, i64 %138
  %140 = load i8, i8* %139, align 1
  %141 = sext i8 %140 to i32
  %142 = call i32 (i8*, ...) @printf(i8* getelementptr inbounds ([3 x i8], [3 x i8]* @.str, i64 0, i64 0), i32 %141)
  br label %143

143:                                              ; preds = %132
  %144 = load i32, i32* %15, align 4
  %145 = add nsw i32 %144, 1
  store i32 %145, i32* %15, align 4
  br label %124

146:                                              ; preds = %124
  br label %154

147:                                              ; preds = %88
  %148 = load i32, i32* %5, align 4
  %149 = icmp eq i32 %148, 0
  br i1 %149, label %150, label %153

150:                                              ; preds = %147
  %151 = getelementptr inbounds [257 x i8], [257 x i8]* %2, i64 0, i64 0
  %152 = call i32 @puts(i8* %151)
  br label %153

153:                                              ; preds = %150, %147
  br label %154

154:                                              ; preds = %153, %146
  ret i32 0
}

declare dso_local i32 @gets(...) #1

; Function Attrs: nounwind readonly
declare dso_local i64 @strlen(i8*) #2

declare dso_local i32 @printf(i8*, ...) #1

declare dso_local i32 @puts(i8*) #1


!llvm.module.flags = !{!0}
!llvm.ident = !{!1}

!0 = !{i32 1, !"wchar_size", i32 4}
!1 = !{!"clang version 10.0.0-4ubuntu1 "}
